target datalayout = "e-m:e-p270:32:32-p271:32:32-p272:64:64-i64:64-i128:128-f80:128-n8:16:32:64-S128"
target triple = "x86_64-pc-linux-gnu"

%struct.rb_data_type_struct = type { ptr, %struct.anon, ptr, ptr, i64 }
%struct.anon = type { ptr, ptr, ptr, ptr, [1 x ptr] }
%struct.RTypedData = type { %struct.RBasic, ptr, i64, ptr }
%struct.RBasic = type { i64, i64 }

@eOCSPError = internal global i64 0, align 8
@cOCSPSingleRes = internal global i64 0, align 8
@rb_eRuntimeError = external global i64, align 8
@.str.72 = private unnamed_addr constant [14 x i8] c"ASN1_item_dup\00", align 1
@ossl_ocsp_basicresp_type = internal constant %struct.rb_data_type_struct { ptr @.str.76, %struct.anon { ptr null, ptr @ossl_ocsp_basicresp_free, ptr null, ptr null, [1 x ptr] zeroinitializer }, ptr null, ptr null, i64 33 }, align 8
@.str.75 = private unnamed_addr constant [29 x i8] c"Response wasn't initialized!\00", align 1
@ossl_ocsp_certid_type = internal constant %struct.rb_data_type_struct { ptr @.str.80, %struct.anon { ptr null, ptr @ossl_ocsp_certid_free, ptr null, ptr null, [1 x ptr] zeroinitializer }, ptr null, ptr null, i64 33 }, align 8
@.str.77 = private unnamed_addr constant [28 x i8] c"Cert ID wasn't initialized!\00", align 1
@ossl_ocsp_singleresp_type = internal constant %struct.rb_data_type_struct { ptr @.str.88, %struct.anon { ptr null, ptr @ossl_ocsp_singleresp_free, ptr null, ptr null, [1 x ptr] zeroinitializer }, ptr null, ptr null, i64 33 }, align 8
@.str.87 = private unnamed_addr constant [35 x i8] c"SingleResponse wasn't initialized!\00", align 1

; Function Attrs: nounwind sspstrong uwtable
define internal i64 @ossl_ocspsres_new(ptr noundef %0) #0 {
  %2 = alloca ptr, align 8
  %3 = alloca i64, align 8
  store ptr %0, ptr %2, align 8, !tbaa !46
  call void @llvm.lifetime.start.p0(i64 8, ptr %3) #15
  %4 = load i64, ptr @cOCSPSingleRes, align 8, !tbaa !6
  %5 = call i64 @rb_data_typed_object_wrap(i64 noundef %4, ptr noundef null, ptr noundef @ossl_ocsp_singleresp_type)
  store i64 %5, ptr %3, align 8, !tbaa !6
  br label %6

6:                                                ; preds = %1
  %7 = load ptr, ptr %2, align 8, !tbaa !46
  %8 = icmp ne ptr %7, null
  br i1 %8, label %11, label %9

9:                                                ; preds = %6
  %10 = load i64, ptr @rb_eRuntimeError, align 8, !tbaa !6
  call void (i64, ptr, ...) @ossl_raise(i64 noundef %10, ptr noundef @.str.87) #16
  unreachable

11:                                               ; preds = %6
  %12 = load ptr, ptr %2, align 8, !tbaa !46
  %13 = load i64, ptr %3, align 8, !tbaa !6
  %14 = inttoptr i64 %13 to ptr
  %15 = getelementptr inbounds nuw %struct.RTypedData, ptr %14, i32 0, i32 3
  store ptr %12, ptr %15, align 8, !tbaa !13
  br label %16

16:                                               ; preds = %11
  br label %17

17:                                               ; preds = %16
  %18 = load i64, ptr %3, align 8, !tbaa !6
  call void @llvm.lifetime.end.p0(i64 8, ptr %3) #15
  ret i64 %18
}

; Function Attrs: nounwind sspstrong uwtable
define internal i64 @ossl_ocspbres_find_response(i64 noundef %0, i64 noundef %1) #0 {
  %3 = alloca i64, align 8
  %4 = alloca i64, align 8
  %5 = alloca i64, align 8
  %6 = alloca ptr, align 8
  %7 = alloca ptr, align 8
  %8 = alloca ptr, align 8
  %9 = alloca ptr, align 8
  %10 = alloca i32, align 4
  %11 = alloca i32, align 4
  store i64 %0, ptr %4, align 8, !tbaa !6
  store i64 %1, ptr %5, align 8, !tbaa !6
  call void @llvm.lifetime.start.p0(i64 8, ptr %6) #15
  call void @llvm.lifetime.start.p0(i64 8, ptr %7) #15
  call void @llvm.lifetime.start.p0(i64 8, ptr %8) #15
  call void @llvm.lifetime.start.p0(i64 8, ptr %9) #15
  call void @llvm.lifetime.start.p0(i64 4, ptr %10) #15
  br label %12

12:                                               ; preds = %2
  %13 = load i64, ptr %5, align 8, !tbaa !6
  %14 = call ptr @rb_check_typeddata(i64 noundef %13, ptr noundef @ossl_ocsp_certid_type)
  store ptr %14, ptr %9, align 8, !tbaa !25
  %15 = load ptr, ptr %9, align 8, !tbaa !25
  %16 = icmp ne ptr %15, null
  br i1 %16, label %19, label %17

17:                                               ; preds = %12
  %18 = load i64, ptr @rb_eRuntimeError, align 8, !tbaa !6
  call void (i64, ptr, ...) @ossl_raise(i64 noundef %18, ptr noundef @.str.77) #16
  unreachable

19:                                               ; preds = %12
  br label %20

20:                                               ; preds = %19
  br label %21

21:                                               ; preds = %20
  br label %22

22:                                               ; preds = %21
  %23 = load i64, ptr %4, align 8, !tbaa !6
  %24 = call ptr @rb_check_typeddata(i64 noundef %23, ptr noundef @ossl_ocsp_basicresp_type)
  store ptr %24, ptr %6, align 8, !tbaa !23
  %25 = load ptr, ptr %6, align 8, !tbaa !23
  %26 = icmp ne ptr %25, null
  br i1 %26, label %29, label %27

27:                                               ; preds = %22
  %28 = load i64, ptr @rb_eRuntimeError, align 8, !tbaa !6
  call void (i64, ptr, ...) @ossl_raise(i64 noundef %28, ptr noundef @.str.75) #16
  unreachable

29:                                               ; preds = %22
  br label %30

30:                                               ; preds = %29
  br label %31

31:                                               ; preds = %30
  %32 = load ptr, ptr %6, align 8, !tbaa !23
  %33 = load ptr, ptr %9, align 8, !tbaa !25
  %34 = call i32 @OCSP_resp_find(ptr noundef %32, ptr noundef %33, i32 noundef -1)
  store i32 %34, ptr %10, align 4, !tbaa !17
  %35 = icmp eq i32 %34, -1
  br i1 %35, label %36, label %37

36:                                               ; preds = %31
  store i64 4, ptr %3, align 8
  store i32 1, ptr %11, align 4
  br label %51

37:                                               ; preds = %31
  %38 = load ptr, ptr %6, align 8, !tbaa !23
  %39 = load i32, ptr %10, align 4, !tbaa !17
  %40 = call ptr @OCSP_resp_get0(ptr noundef %38, i32 noundef %39)
  store ptr %40, ptr %7, align 8, !tbaa !46
  %41 = call ptr @OCSP_SINGLERESP_it()
  %42 = load ptr, ptr %7, align 8, !tbaa !46
  %43 = call ptr @ASN1_item_dup(ptr noundef %41, ptr noundef %42)
  store ptr %43, ptr %8, align 8, !tbaa !46
  %44 = load ptr, ptr %8, align 8, !tbaa !46
  %45 = icmp ne ptr %44, null
  br i1 %45, label %48, label %46

46:                                               ; preds = %37
  %47 = load i64, ptr @eOCSPError, align 8, !tbaa !6
  call void (i64, ptr, ...) @ossl_raise(i64 noundef %47, ptr noundef @.str.72) #16
  unreachable

48:                                               ; preds = %37
  %49 = load ptr, ptr %8, align 8, !tbaa !46
  %50 = call i64 @ossl_ocspsres_new(ptr noundef %49)
  store i64 %50, ptr %3, align 8
  store i32 1, ptr %11, align 4
  br label %51

51:                                               ; preds = %48, %36
  call void @llvm.lifetime.end.p0(i64 4, ptr %10) #15
  call void @llvm.lifetime.end.p0(i64 8, ptr %9) #15
  call void @llvm.lifetime.end.p0(i64 8, ptr %8) #15
  call void @llvm.lifetime.end.p0(i64 8, ptr %7) #15
  call void @llvm.lifetime.end.p0(i64 8, ptr %6) #15
  %52 = load i64, ptr %3, align 8
  ret i64 %52
}