; Function Attrs: nounwind sspstrong uwtable
define internal i64 @ossl_ocspbres_find_response(i64 noundef %0, i64 noundef %1) #0 {
  %3 = tail call ptr @rb_check_typeddata(i64 noundef %1, ptr noundef nonnull @ossl_ocsp_certid_type) #5
  %.not = icmp eq ptr %3, null
  br i1 %.not, label %4, label %6

4:                                                ; preds = %2
  %5 = load i64, ptr @rb_eRuntimeError, align 8, !tbaa !6
  tail call void (i64, ptr, ...) @ossl_raise(i64 noundef %5, ptr noundef nonnull @.str.77) #6
  unreachable

6:                                                ; preds = %2
  %7 = tail call ptr @rb_check_typeddata(i64 noundef %0, ptr noundef nonnull @ossl_ocsp_basicresp_type) #5
  %.not15 = icmp eq ptr %7, null
  br i1 %.not15, label %8, label %10

8:                                                ; preds = %6
  %9 = load i64, ptr @rb_eRuntimeError, align 8, !tbaa !6
  tail call void (i64, ptr, ...) @ossl_raise(i64 noundef %9, ptr noundef nonnull @.str.75) #6
  unreachable

10:                                               ; preds = %6
  %11 = tail call i32 @OCSP_resp_find(ptr noundef nonnull %7, ptr noundef nonnull %3, i32 noundef -1) #5
  %12 = icmp eq i32 %11, -1
  br i1 %12, label %24, label %13

13:                                               ; preds = %10
  %14 = tail call ptr @OCSP_resp_get0(ptr noundef nonnull %7, i32 noundef %11) #5
  %15 = tail call ptr @OCSP_SINGLERESP_it() #5
  %16 = tail call ptr @ASN1_item_dup(ptr noundef %15, ptr noundef %14) #5
  %.not16 = icmp eq ptr %16, null
  br i1 %.not16, label %17, label %19

17:                                               ; preds = %13
  %18 = load i64, ptr @eOCSPError, align 8, !tbaa !6
  tail call void (i64, ptr, ...) @ossl_raise(i64 noundef %18, ptr noundef nonnull @.str.72) #6
  unreachable

19:                                               ; preds = %13
  %20 = load i64, ptr @cOCSPSingleRes, align 8, !tbaa !6
  %21 = tail call i64 @rb_data_typed_object_wrap(i64 noundef %20, ptr noundef null, ptr noundef nonnull @ossl_ocsp_singleresp_type) #5
  %22 = inttoptr i64 %21 to ptr
  %23 = getelementptr inbounds nuw i8, ptr %22, i64 32
  store ptr %16, ptr %23, align 8, !tbaa !10
  br label %24

24:                                               ; preds = %10, %19
  %.0 = phi i64 [ %21, %19 ], [ 4, %10 ]
  ret i64 %.0
}